; ModuleID = '46/873.c'
source_filename = "46/873.c"
target datalayout = "e-m:e-p270:32:32-p271:32:32-p272:64:64-i64:64-f80:128-n8:16:32:64-S128"
target triple = "x86_64-pc-linux-gnu"

@.str = private unnamed_addr constant [6 x i8] c"%d %d\00", align 1
@.str.1 = private unnamed_addr constant [3 x i8] c"%d\00", align 1
@.str.2 = private unnamed_addr constant [4 x i8] c"%d\0A\00", align 1

; Function Attrs: noinline nounwind uwtable
define dso_local i32 @main() #0 {
  %1 = alloca i32, align 4
  %2 = alloca [100 x [100 x i32]], align 16
  %3 = alloca i32, align 4
  %4 = alloca i32, align 4
  %5 = alloca i32, align 4
  %6 = alloca i32, align 4
  %7 = alloca i32, align 4
  %8 = alloca i32, align 4
  %9 = alloca i32, align 4
  %10 = alloca i32, align 4
  %11 = alloca i32, align 4
  store i32 0, i32* %1, align 4
  %12 = call i32 (i8*, ...) @__isoc99_scanf(i8* getelementptr inbounds ([6 x i8], [6 x i8]* @.str, i64 0, i64 0), i32* %3, i32* %4)
  store i32 0, i32* %7, align 4
  store i32 0, i32* %8, align 4
  %13 = load i32, i32* %3, align 4
  %14 = sub nsw i32 %13, 1
  store i32 %14, i32* %9, align 4
  %15 = load i32, i32* %4, align 4
  %16 = sub nsw i32 %15, 1
  store i32 %16, i32* %10, align 4
  store i32 0, i32* %5, align 4
  br label %17

17:                                               ; preds = %38, %0
  %18 = load i32, i32* %5, align 4
  %19 = load i32, i32* %3, align 4
  %20 = icmp slt i32 %18, %19
  br i1 %20, label %21, label %41

21:                                               ; preds = %17
  store i32 0, i32* %6, align 4
  br label %22

22:                                               ; preds = %34, %21
  %23 = load i32, i32* %6, align 4
  %24 = load i32, i32* %4, align 4
  %25 = icmp slt i32 %23, %24
  br i1 %25, label %26, label %37

26:                                               ; preds = %22
  %27 = load i32, i32* %5, align 4
  %28 = sext i32 %27 to i64
  %29 = getelementptr inbounds [100 x [100 x i32]], [100 x [100 x i32]]* %2, i64 0, i64 %28
  %30 = load i32, i32* %6, align 4
  %31 = sext i32 %30 to i64
  %32 = getelementptr inbounds [100 x i32], [100 x i32]* %29, i64 0, i64 %31
  %33 = call i32 (i8*, ...) @__isoc99_scanf(i8* getelementptr inbounds ([3 x i8], [3 x i8]* @.str.1, i64 0, i64 0), i32* %32)
  br label %34

34:                                               ; preds = %26
  %35 = load i32, i32* %6, align 4
  %36 = add nsw i32 %35, 1
  store i32 %36, i32* %6, align 4
  br label %22

37:                                               ; preds = %22
  br label %38

38:                                               ; preds = %37
  %39 = load i32, i32* %5, align 4
  %40 = add nsw i32 %39, 1
  store i32 %40, i32* %5, align 4
  br label %17

41:                                               ; preds = %17
  br label %42

42:                                               ; preds = %124, %41
  %43 = load i32, i32* %9, align 4
  %44 = load i32, i32* %7, align 4
  %45 = icmp sgt i32 %43, %44
  br i1 %45, label %46, label %50

46:                                               ; preds = %42
  %47 = load i32, i32* %10, align 4
  %48 = load i32, i32* %8, align 4
  %49 = icmp sgt i32 %47, %48
  br label %50

50:                                               ; preds = %46, %42
  %51 = phi i1 [ false, %42 ], [ %49, %46 ]
  br i1 %51, label %52, label %133

52:                                               ; preds = %50
  %53 = load i32, i32* %8, align 4
  store i32 %53, i32* %6, align 4
  br label %54

54:                                               ; preds = %67, %52
  %55 = load i32, i32* %6, align 4
  %56 = load i32, i32* %10, align 4
  %57 = icmp slt i32 %55, %56
  br i1 %57, label %58, label %70

58:                                               ; preds = %54
  %59 = load i32, i32* %7, align 4
  %60 = sext i32 %59 to i64
  %61 = getelementptr inbounds [100 x [100 x i32]], [100 x [100 x i32]]* %2, i64 0, i64 %60
  %62 = load i32, i32* %6, align 4
  %63 = sext i32 %62 to i64
  %64 = getelementptr inbounds [100 x i32], [100 x i32]* %61, i64 0, i64 %63
  %65 = load i32, i32* %64, align 4
  %66 = call i32 (i8*, ...) @printf(i8* getelementptr inbounds ([4 x i8], [4 x i8]* @.str.2, i64 0, i64 0), i32 %65)
  br label %67

67:                                               ; preds = %58
  %68 = load i32, i32* %6, align 4
  %69 = add nsw i32 %68, 1
  store i32 %69, i32* %6, align 4
  br label %54

70:                                               ; preds = %54
  %71 = load i32, i32* %7, align 4
  store i32 %71, i32* %5, align 4
  br label %72

72:                                               ; preds = %85, %70
  %73 = load i32, i32* %5, align 4
  %74 = load i32, i32* %9, align 4
  %75 = icmp slt i32 %73, %74
  br i1 %75, label %76, label %88

76:                                               ; preds = %72
  %77 = load i32, i32* %5, align 4
  %78 = sext i32 %77 to i64
  %79 = getelementptr inbounds [100 x [100 x i32]], [100 x [100 x i32]]* %2, i64 0, i64 %78
  %80 = load i32, i32* %10, align 4
  %81 = sext i32 %80 to i64
  %82 = getelementptr inbounds [100 x i32], [100 x i32]* %79, i64 0, i64 %81
  %83 = load i32, i32* %82, align 4
  %84 = call i32 (i8*, ...) @printf(i8* getelementptr inbounds ([4 x i8], [4 x i8]* @.str.2, i64 0, i64 0), i32 %83)
  br label %85

85:                                               ; preds = %76
  %86 = load i32, i32* %5, align 4
  %87 = add nsw i32 %86, 1
  store i32 %87, i32* %5, align 4
  br label %72

88:                                               ; preds = %72
  %89 = load i32, i32* %10, align 4
  store i32 %89, i32* %6, align 4
  br label %90

90:                                               ; preds = %103, %88
  %91 = load i32, i32* %6, align 4
  %92 = load i32, i32* %8, align 4
  %93 = icmp sgt i32 %91, %92
  br i1 %93, label %94, label %106

94:                                               ; preds = %90
  %95 = load i32, i32* %9, align 4
  %96 = sext i32 %95 to i64
  %97 = getelementptr inbounds [100 x [100 x i32]], [100 x [100 x i32]]* %2, i64 0, i64 %96
  %98 = load i32, i32* %6, align 4
  %99 = sext i32 %98 to i64
  %100 = getelementptr inbounds [100 x i32], [100 x i32]* %97, i64 0, i64 %99
  %101 = load i32, i32* %100, align 4
  %102 = call i32 (i8*, ...) @printf(i8* getelementptr inbounds ([4 x i8], [4 x i8]* @.str.2, i64 0, i64 0), i32 %101)
  br label %103

103:                                              ; preds = %94
  %104 = load i32, i32* %6, align 4
  %105 = add nsw i32 %104, -1
  store i32 %105, i32* %6, align 4
  br label %90

106:                                              ; preds = %90
  %107 = load i32, i32* %9, align 4
  store i32 %107, i32* %5, align 4
  br label %108

108:                                              ; preds = %121, %106
  %109 = load i32, i32* %5, align 4
  %110 = load i32, i32* %7, align 4
  %111 = icmp sgt i32 %109, %110
  br i1 %111, label %112, label %124

112:                                              ; preds = %108
  %113 = load i32, i32* %5, align 4
  %114 = sext i32 %113 to i64
  %115 = getelementptr inbounds [100 x [100 x i32]], [100 x [100 x i32]]* %2, i64 0, i64 %114
  %116 = load i32, i32* %8, align 4
  %117 = sext i32 %116 to i64
  %118 = getelementptr inbounds [100 x i32], [100 x i32]* %115, i64 0, i64 %117
  %119 = load i32, i32* %118, align 4
  %120 = call i32 (i8*, ...) @printf(i8* getelementptr inbounds ([4 x i8], [4 x i8]* @.str.2, i64 0, i64 0), i32 %119)
  br label %121

121:                                              ; preds = %112
  %122 = load i32, i32* %5, align 4
  %123 = add nsw i32 %122, -1
  store i32 %123, i32* %5, align 4
  br label %108

124:                                              ; preds = %108
  %125 = load i32, i32* %9, align 4
  %126 = add nsw i32 %125, -1
  store i32 %126, i32* %9, align 4
  %127 = load i32, i32* %10, align 4
  %128 = add nsw i32 %127, -1
  store i32 %128, i32* %10, align 4
  %129 = load i32, i32* %7, align 4
  %130 = add nsw i32 %129, 1
  store i32 %130, i32* %7, align 4
  %131 = load i32, i32* %8, align 4
  %132 = add nsw i32 %131, 1
  store i32 %132, i32* %8, align 4
  br label %42

133:                                              ; preds = %50
  %134 = load i32, i32* %3, align 4
  %135 = load i32, i32* %4, align 4
  %136 = mul nsw i32 %134, %135
  %137 = srem i32 %136, 2
  %138 = icmp ne i32 %137, 0
  br i1 %138, label %139, label %182

139:                                              ; preds = %133
  %140 = load i32, i32* %3, align 4
  %141 = load i32, i32* %4, align 4
  %142 = icmp slt i32 %140, %141
  br i1 %142, label %143, label %162

143:                                              ; preds = %139
  %144 = load i32, i32* %7, align 4
  store i32 %144, i32* %6, align 4
  br label %145

145:                                              ; preds = %158, %143
  %146 = load i32, i32* %6, align 4
  %147 = load i32, i32* %10, align 4
  %148 = icmp sle i32 %146, %147
  br i1 %148, label %149, label %161

149:                                              ; preds = %145
  %150 = load i32, i32* %7, align 4
  %151 = sext i32 %150 to i64
  %152 = getelementptr inbounds [100 x [100 x i32]], [100 x [100 x i32]]* %2, i64 0, i64 %151
  %153 = load i32, i32* %6, align 4
  %154 = sext i32 %153 to i64
  %155 = getelementptr inbounds [100 x i32], [100 x i32]* %152, i64 0, i64 %154
  %156 = load i32, i32* %155, align 4
  %157 = call i32 (i8*, ...) @printf(i8* getelementptr inbounds ([4 x i8], [4 x i8]* @.str.2, i64 0, i64 0), i32 %156)
  br label %158

158:                                              ; preds = %149
  %159 = load i32, i32* %6, align 4
  %160 = add nsw i32 %159, 1
  store i32 %160, i32* %6, align 4
  br label %145

161:                                              ; preds = %145
  br label %181

162:                                              ; preds = %139
  %163 = load i32, i32* %8, align 4
  store i32 %163, i32* %6, align 4
  br label %164

164:                                              ; preds = %177, %162
  %165 = load i32, i32* %6, align 4
  %166 = load i32, i32* %9, align 4
  %167 = icmp sle i32 %165, %166
  br i1 %167, label %168, label %180

168:                                              ; preds = %164
  %169 = load i32, i32* %6, align 4
  %170 = sext i32 %169 to i64
  %171 = getelementptr inbounds [100 x [100 x i32]], [100 x [100 x i32]]* %2, i64 0, i64 %170
  %172 = load i32, i32* %8, align 4
  %173 = sext i32 %172 to i64
  %174 = getelementptr inbounds [100 x i32], [100 x i32]* %171, i64 0, i64 %173
  %175 = load i32, i32* %174, align 4
  %176 = call i32 (i8*, ...) @printf(i8* getelementptr inbounds ([4 x i8], [4 x i8]* @.str.2, i64 0, i64 0), i32 %175)
  br label %177

177:                                              ; preds = %168
  %178 = load i32, i32* %6, align 4
  %179 = add nsw i32 %178, 1
  store i32 %179, i32* %6, align 4
  br label %164

180:                                              ; preds = %164
  br label %181

181:                                              ; preds = %180, %161
  br label %246

182:                                              ; preds = %133
  %183 = load i32, i32* %4, align 4
  %184 = srem i32 %183, 2
  %185 = icmp eq i32 %184, 0
  br i1 %185, label %186, label %213

186:                                              ; preds = %182
  %187 = load i32, i32* %3, align 4
  %188 = srem i32 %187, 2
  %189 = icmp ne i32 %188, 0
  br i1 %189, label %190, label %213

190:                                              ; preds = %186
  %191 = load i32, i32* %4, align 4
  %192 = load i32, i32* %3, align 4
  %193 = icmp sgt i32 %191, %192
  br i1 %193, label %194, label %213

194:                                              ; preds = %190
  %195 = load i32, i32* %7, align 4
  store i32 %195, i32* %6, align 4
  br label %196

196:                                              ; preds = %209, %194
  %197 = load i32, i32* %6, align 4
  %198 = load i32, i32* %10, align 4
  %199 = icmp sle i32 %197, %198
  br i1 %199, label %200, label %212

200:                                              ; preds = %196
  %201 = load i32, i32* %7, align 4
  %202 = sext i32 %201 to i64
  %203 = getelementptr inbounds [100 x [100 x i32]], [100 x [100 x i32]]* %2, i64 0, i64 %202
  %204 = load i32, i32* %6, align 4
  %205 = sext i32 %204 to i64
  %206 = getelementptr inbounds [100 x i32], [100 x i32]* %203, i64 0, i64 %205
  %207 = load i32, i32* %206, align 4
  %208 = call i32 (i8*, ...) @printf(i8* getelementptr inbounds ([4 x i8], [4 x i8]* @.str.2, i64 0, i64 0), i32 %207)
  br label %209

209:                                              ; preds = %200
  %210 = load i32, i32* %6, align 4
  %211 = add nsw i32 %210, 1
  store i32 %211, i32* %6, align 4
  br label %196

212:                                              ; preds = %196
  br label %245

213:                                              ; preds = %190, %186, %182
  %214 = load i32, i32* %3, align 4
  %215 = srem i32 %214, 2
  %216 = icmp eq i32 %215, 0
  br i1 %216, label %217, label %244

217:                                              ; preds = %213
  %218 = load i32, i32* %4, align 4
  %219 = srem i32 %218, 2
  %220 = icmp ne i32 %219, 0
  br i1 %220, label %221, label %244

221:                                              ; preds = %217
  %222 = load i32, i32* %3, align 4
  %223 = load i32, i32* %4, align 4
  %224 = icmp sgt i32 %222, %223
  br i1 %224, label %225, label %244

225:                                              ; preds = %221
  %226 = load i32, i32* %8, align 4
  store i32 %226, i32* %6, align 4
  br label %227

227:                                              ; preds = %240, %225
  %228 = load i32, i32* %6, align 4
  %229 = load i32, i32* %9, align 4
  %230 = icmp sle i32 %228, %229
  br i1 %230, label %231, label %243

231:                                              ; preds = %227
  %232 = load i32, i32* %6, align 4
  %233 = sext i32 %232 to i64
  %234 = getelementptr inbounds [100 x [100 x i32]], [100 x [100 x i32]]* %2, i64 0, i64 %233
  %235 = load i32, i32* %8, align 4
  %236 = sext i32 %235 to i64
  %237 = getelementptr inbounds [100 x i32], [100 x i32]* %234, i64 0, i64 %236
  %238 = load i32, i32* %237, align 4
  %239 = call i32 (i8*, ...) @printf(i8* getelementptr inbounds ([4 x i8], [4 x i8]* @.str.2, i64 0, i64 0), i32 %238)
  br label %240

240:                                              ; preds = %231
  %241 = load i32, i32* %6, align 4
  %242 = add nsw i32 %241, 1
  store i32 %242, i32* %6, align 4
  br label %227

243:                                              ; preds = %227
  br label %244

244:                                              ; preds = %243, %221, %217, %213
  br label %245

245:                                              ; preds = %244, %212
  br label %246

246:                                              ; preds = %245, %181
  ret i32 0
}

declare dso_local i32 @__isoc99_scanf(i8*, ...) #1

declare dso_local i32 @printf(i8*, ...) #1


!llvm.module.flags = !{!0}
!llvm.ident = !{!1}

!0 = !{i32 1, !"wchar_size", i32 4}
!1 = !{!"clang version 10.0.0-4ubuntu1 "}
